target datalayout = "e-m:e-p270:32:32-p271:32:32-p272:64:64-i64:64-i128:128-f80:128-n8:16:32:64-S128"
target triple = "x86_64-pc-linux-gnu"

%struct.AVFilterContext = type { ptr, ptr, ptr, ptr, ptr, i32, ptr, ptr, i32, ptr, ptr, i32, i32, ptr, ptr, ptr, ptr, i32, ptr, i32, i32 }
%struct.SignalstatsContext = type { ptr, i32, i32, i32, i32, i32, i32, i32, i32, i32, ptr, [4 x i8], [3 x i32], i32, ptr, i32, ptr, ptr, ptr, ptr, ptr, ptr }
%struct.ThreadData = type { ptr, ptr }
%struct.AVChannelLayout = type { i32, i32, %union.anon.1, ptr }
%union.anon.1 = type { i64 }
%struct.AVRational = type { i32, i32 }
%struct.AVFrame = type { [8 x ptr], [8 x i32], ptr, i32, i32, i32, i32, i32, %struct.AVRational, i64, i64, %struct.AVRational, i32, ptr, i32, i32, [8 x ptr], ptr, i32, ptr, i32, i32, i32, i32, i32, i32, i32, i64, ptr, i32, ptr, ptr, i64, i64, i64, i64, ptr, %struct.AVChannelLayout, i64 }

; Function Attrs: nounwind uwtable
define internal void @burn_frame16(ptr noundef %0, ptr noundef %1, i32 noundef %2, i32 noundef %3) #1 {
  %5 = alloca ptr, align 8
  %6 = alloca ptr, align 8
  %7 = alloca i32, align 4
  %8 = alloca i32, align 4
  %9 = alloca i32, align 4
  %10 = alloca i32, align 4
  %11 = alloca i32, align 4
  store ptr %0, ptr %5, align 8, !tbaa !22
  store ptr %1, ptr %6, align 8, !tbaa !33
  store i32 %2, ptr %7, align 4, !tbaa !30
  store i32 %3, ptr %8, align 4, !tbaa !30
  call void @llvm.lifetime.start.p0(i64 4, ptr %9) #11
  %12 = load i32, ptr %7, align 4, !tbaa !30
  %13 = load ptr, ptr %5, align 8, !tbaa !22
  %14 = getelementptr inbounds nuw %struct.SignalstatsContext, ptr %13, i32 0, i32 3
  %15 = load i32, ptr %14, align 8, !tbaa !121
  %16 = ashr i32 %12, %15
  store i32 %16, ptr %9, align 4, !tbaa !30
  call void @llvm.lifetime.start.p0(i64 4, ptr %10) #11
  %17 = load i32, ptr %8, align 4, !tbaa !30
  %18 = load ptr, ptr %5, align 8, !tbaa !22
  %19 = getelementptr inbounds nuw %struct.SignalstatsContext, ptr %18, i32 0, i32 4
  %20 = load i32, ptr %19, align 4, !tbaa !120
  %21 = ashr i32 %17, %20
  store i32 %21, ptr %10, align 4, !tbaa !30
  call void @llvm.lifetime.start.p0(i64 4, ptr %11) #11
  %22 = load ptr, ptr %5, align 8, !tbaa !22
  %23 = getelementptr inbounds nuw %struct.SignalstatsContext, ptr %22, i32 0, i32 5
  %24 = load i32, ptr %23, align 8, !tbaa !54
  %25 = sub nsw i32 %24, 8
  %26 = shl i32 1, %25
  store i32 %26, ptr %11, align 4, !tbaa !30
  %27 = load ptr, ptr %5, align 8, !tbaa !22
  %28 = getelementptr inbounds nuw %struct.SignalstatsContext, ptr %27, i32 0, i32 12
  %29 = getelementptr inbounds [3 x i32], ptr %28, i64 0, i64 0
  %30 = load i32, ptr %29, align 4, !tbaa !30
  %31 = load i32, ptr %11, align 4, !tbaa !30
  %32 = mul nsw i32 %30, %31
  %33 = trunc i32 %32 to i16
  %34 = load ptr, ptr %6, align 8, !tbaa !33
  %35 = getelementptr inbounds nuw %struct.AVFrame, ptr %34, i32 0, i32 0
  %36 = getelementptr inbounds [8 x ptr], ptr %35, i64 0, i64 0
  %37 = load ptr, ptr %36, align 8, !tbaa !62
  %38 = load i32, ptr %8, align 4, !tbaa !30
  %39 = load ptr, ptr %6, align 8, !tbaa !33
  %40 = getelementptr inbounds nuw %struct.AVFrame, ptr %39, i32 0, i32 1
  %41 = getelementptr inbounds [8 x i32], ptr %40, i64 0, i64 0
  %42 = load i32, ptr %41, align 8, !tbaa !30
  %43 = mul nsw i32 %38, %42
  %44 = sext i32 %43 to i64
  %45 = getelementptr inbounds i8, ptr %37, i64 %44
  %46 = load i32, ptr %7, align 4, !tbaa !30
  %47 = mul nsw i32 %46, 2
  %48 = sext i32 %47 to i64
  %49 = getelementptr inbounds i8, ptr %45, i64 %48
  store i16 %33, ptr %49, align 1, !tbaa !29
  %50 = load ptr, ptr %5, align 8, !tbaa !22
  %51 = getelementptr inbounds nuw %struct.SignalstatsContext, ptr %50, i32 0, i32 12
  %52 = getelementptr inbounds [3 x i32], ptr %51, i64 0, i64 1
  %53 = load i32, ptr %52, align 4, !tbaa !30
  %54 = load i32, ptr %11, align 4, !tbaa !30
  %55 = mul nsw i32 %53, %54
  %56 = trunc i32 %55 to i16
  %57 = load ptr, ptr %6, align 8, !tbaa !33
  %58 = getelementptr inbounds nuw %struct.AVFrame, ptr %57, i32 0, i32 0
  %59 = getelementptr inbounds [8 x ptr], ptr %58, i64 0, i64 1
  %60 = load ptr, ptr %59, align 8, !tbaa !62
  %61 = load i32, ptr %10, align 4, !tbaa !30
  %62 = load ptr, ptr %6, align 8, !tbaa !33
  %63 = getelementptr inbounds nuw %struct.AVFrame, ptr %62, i32 0, i32 1
  %64 = getelementptr inbounds [8 x i32], ptr %63, i64 0, i64 1
  %65 = load i32, ptr %64, align 4, !tbaa !30
  %66 = mul nsw i32 %61, %65
  %67 = sext i32 %66 to i64
  %68 = getelementptr inbounds i8, ptr %60, i64 %67
  %69 = load i32, ptr %9, align 4, !tbaa !30
  %70 = mul nsw i32 %69, 2
  %71 = sext i32 %70 to i64
  %72 = getelementptr inbounds i8, ptr %68, i64 %71
  store i16 %56, ptr %72, align 1, !tbaa !29
  %73 = load ptr, ptr %5, align 8, !tbaa !22
  %74 = getelementptr inbounds nuw %struct.SignalstatsContext, ptr %73, i32 0, i32 12
  %75 = getelementptr inbounds [3 x i32], ptr %74, i64 0, i64 2
  %76 = load i32, ptr %75, align 4, !tbaa !30
  %77 = load i32, ptr %11, align 4, !tbaa !30
  %78 = mul nsw i32 %76, %77
  %79 = trunc i32 %78 to i16
  %80 = load ptr, ptr %6, align 8, !tbaa !33
  %81 = getelementptr inbounds nuw %struct.AVFrame, ptr %80, i32 0, i32 0
  %82 = getelementptr inbounds [8 x ptr], ptr %81, i64 0, i64 2
  %83 = load ptr, ptr %82, align 8, !tbaa !62
  %84 = load i32, ptr %10, align 4, !tbaa !30
  %85 = load ptr, ptr %6, align 8, !tbaa !33
  %86 = getelementptr inbounds nuw %struct.AVFrame, ptr %85, i32 0, i32 1
  %87 = getelementptr inbounds [8 x i32], ptr %86, i64 0, i64 2
  %88 = load i32, ptr %87, align 8, !tbaa !30
  %89 = mul nsw i32 %84, %88
  %90 = sext i32 %89 to i64
  %91 = getelementptr inbounds i8, ptr %83, i64 %90
  %92 = load i32, ptr %9, align 4, !tbaa !30
  %93 = mul nsw i32 %92, 2
  %94 = sext i32 %93 to i64
  %95 = getelementptr inbounds i8, ptr %91, i64 %94
  store i16 %79, ptr %95, align 1, !tbaa !29
  call void @llvm.lifetime.end.p0(i64 4, ptr %11) #11
  call void @llvm.lifetime.end.p0(i64 4, ptr %10) #11
  call void @llvm.lifetime.end.p0(i64 4, ptr %9) #11
  ret void
}

; Function Attrs: nounwind uwtable
define internal i32 @filter16_vrep(ptr noundef %0, ptr noundef %1, i32 noundef %2, i32 noundef %3) #1 {
  %5 = alloca ptr, align 8
  %6 = alloca ptr, align 8
  %7 = alloca i32, align 4
  %8 = alloca i32, align 4
  %9 = alloca ptr, align 8
  %10 = alloca ptr, align 8
  %11 = alloca ptr, align 8
  %12 = alloca ptr, align 8
  %13 = alloca i32, align 4
  %14 = alloca i32, align 4
  %15 = alloca i32, align 4
  %16 = alloca i32, align 4
  %17 = alloca ptr, align 8
  %18 = alloca i32, align 4
  %19 = alloca i32, align 4
  %20 = alloca i32, align 4
  %21 = alloca i32, align 4
  %22 = alloca i32, align 4
  %23 = alloca i32, align 4
  %24 = alloca i64, align 8
  %25 = alloca i32, align 4
  %26 = alloca i32, align 4
  store ptr %0, ptr %5, align 8, !tbaa !4
  store ptr %1, ptr %6, align 8, !tbaa !93
  store i32 %2, ptr %7, align 4, !tbaa !30
  store i32 %3, ptr %8, align 4, !tbaa !30
  call void @llvm.lifetime.start.p0(i64 8, ptr %9) #11
  %27 = load ptr, ptr %6, align 8, !tbaa !93
  store ptr %27, ptr %9, align 8, !tbaa !100
  call void @llvm.lifetime.start.p0(i64 8, ptr %10) #11
  %28 = load ptr, ptr %5, align 8, !tbaa !4
  %29 = getelementptr inbounds nuw %struct.AVFilterContext, ptr %28, i32 0, i32 9
  %30 = load ptr, ptr %29, align 8, !tbaa !9
  store ptr %30, ptr %10, align 8, !tbaa !22
  call void @llvm.lifetime.start.p0(i64 8, ptr %11) #11
  %31 = load ptr, ptr %9, align 8, !tbaa !100
  %32 = getelementptr inbounds nuw %struct.ThreadData, ptr %31, i32 0, i32 0
  %33 = load ptr, ptr %32, align 8, !tbaa !77
  store ptr %33, ptr %11, align 8, !tbaa !33
  call void @llvm.lifetime.start.p0(i64 8, ptr %12) #11
  %34 = load ptr, ptr %9, align 8, !tbaa !100
  %35 = getelementptr inbounds nuw %struct.ThreadData, ptr %34, i32 0, i32 1
  %36 = load ptr, ptr %35, align 8, !tbaa !79
  store ptr %36, ptr %12, align 8, !tbaa !33
  call void @llvm.lifetime.start.p0(i64 4, ptr %13) #11
  %37 = load ptr, ptr %11, align 8, !tbaa !33
  %38 = getelementptr inbounds nuw %struct.AVFrame, ptr %37, i32 0, i32 3
  %39 = load i32, ptr %38, align 8, !tbaa !102
  store i32 %39, ptr %13, align 4, !tbaa !30
  call void @llvm.lifetime.start.p0(i64 4, ptr %14) #11
  %40 = load ptr, ptr %11, align 8, !tbaa !33
  %41 = getelementptr inbounds nuw %struct.AVFrame, ptr %40, i32 0, i32 4
  %42 = load i32, ptr %41, align 4, !tbaa !107
  store i32 %42, ptr %14, align 4, !tbaa !30
  call void @llvm.lifetime.start.p0(i64 4, ptr %15) #11
  %43 = load i32, ptr %14, align 4, !tbaa !30
  %44 = load i32, ptr %7, align 4, !tbaa !30
  %45 = mul nsw i32 %43, %44
  %46 = load i32, ptr %8, align 4, !tbaa !30
  %47 = sdiv i32 %45, %46
  store i32 %47, ptr %15, align 4, !tbaa !30
  call void @llvm.lifetime.start.p0(i64 4, ptr %16) #11
  %48 = load i32, ptr %14, align 4, !tbaa !30
  %49 = load i32, ptr %7, align 4, !tbaa !30
  %50 = add nsw i32 %49, 1
  %51 = mul nsw i32 %48, %50
  %52 = load i32, ptr %8, align 4, !tbaa !30
  %53 = sdiv i32 %51, %52
  store i32 %53, ptr %16, align 4, !tbaa !30
  call void @llvm.lifetime.start.p0(i64 8, ptr %17) #11
  %54 = load ptr, ptr %11, align 8, !tbaa !33
  %55 = getelementptr inbounds nuw %struct.AVFrame, ptr %54, i32 0, i32 0
  %56 = getelementptr inbounds [8 x ptr], ptr %55, i64 0, i64 0
  %57 = load ptr, ptr %56, align 8, !tbaa !62
  store ptr %57, ptr %17, align 8, !tbaa !63
  call void @llvm.lifetime.start.p0(i64 4, ptr %18) #11
  %58 = load ptr, ptr %11, align 8, !tbaa !33
  %59 = getelementptr inbounds nuw %struct.AVFrame, ptr %58, i32 0, i32 1
  %60 = getelementptr inbounds [8 x i32], ptr %59, i64 0, i64 0
  %61 = load i32, ptr %60, align 8, !tbaa !30
  %62 = sdiv i32 %61, 2
  store i32 %62, ptr %18, align 4, !tbaa !30
  call void @llvm.lifetime.start.p0(i64 4, ptr %19) #11
  call void @llvm.lifetime.start.p0(i64 4, ptr %20) #11
  call void @llvm.lifetime.start.p0(i64 4, ptr %21) #11
  store i32 0, ptr %21, align 4, !tbaa !30
  %63 = load i32, ptr %15, align 4, !tbaa !30
  store i32 %63, ptr %20, align 4, !tbaa !30
  br label %64

64:                                               ; preds = %141, %4
  %65 = load i32, ptr %20, align 4, !tbaa !30
  %66 = load i32, ptr %16, align 4, !tbaa !30
  %67 = icmp slt i32 %65, %66
  br i1 %67, label %68, label %144

68:                                               ; preds = %64
  call void @llvm.lifetime.start.p0(i64 4, ptr %22) #11
  %69 = load i32, ptr %20, align 4, !tbaa !30
  %70 = sub nsw i32 %69, 4
  %71 = load i32, ptr %18, align 4, !tbaa !30
  %72 = mul nsw i32 %70, %71
  store i32 %72, ptr %22, align 4, !tbaa !30
  call void @llvm.lifetime.start.p0(i64 4, ptr %23) #11
  %73 = load i32, ptr %20, align 4, !tbaa !30
  %74 = load i32, ptr %18, align 4, !tbaa !30
  %75 = mul nsw i32 %73, %74
  store i32 %75, ptr %23, align 4, !tbaa !30
  call void @llvm.lifetime.start.p0(i64 8, ptr %24) #11
  store i64 0, ptr %24, align 8, !tbaa !48
  call void @llvm.lifetime.start.p0(i64 4, ptr %25) #11
  %76 = load i32, ptr %20, align 4, !tbaa !30
  %77 = icmp slt i32 %76, 4
  br i1 %77, label %78, label %79

78:                                               ; preds = %68
  store i32 4, ptr %26, align 4
  br label %138

79:                                               ; preds = %68
  store i32 0, ptr %19, align 4, !tbaa !30
  br label %80

80:                                               ; preds = %106, %79
  %81 = load i32, ptr %19, align 4, !tbaa !30
  %82 = load i32, ptr %13, align 4, !tbaa !30
  %83 = icmp slt i32 %81, %82
  br i1 %83, label %84, label %109

84:                                               ; preds = %80
  %85 = load ptr, ptr %17, align 8, !tbaa !63
  %86 = load i32, ptr %22, align 4, !tbaa !30
  %87 = load i32, ptr %19, align 4, !tbaa !30
  %88 = add nsw i32 %86, %87
  %89 = sext i32 %88 to i64
  %90 = getelementptr inbounds i16, ptr %85, i64 %89
  %91 = load i16, ptr %90, align 2, !tbaa !50
  %92 = zext i16 %91 to i32
  %93 = load ptr, ptr %17, align 8, !tbaa !63
  %94 = load i32, ptr %23, align 4, !tbaa !30
  %95 = load i32, ptr %19, align 4, !tbaa !30
  %96 = add nsw i32 %94, %95
  %97 = sext i32 %96 to i64
  %98 = getelementptr inbounds i16, ptr %93, i64 %97
  %99 = load i16, ptr %98, align 2, !tbaa !50
  %100 = zext i16 %99 to i32
  %101 = sub nsw i32 %92, %100
  %102 = call i32 @llvm.abs.i32(i32 %101, i1 true)
  %103 = sext i32 %102 to i64
  %104 = load i64, ptr %24, align 8, !tbaa !48
  %105 = add nsw i64 %104, %103
  store i64 %105, ptr %24, align 8, !tbaa !48
  br label %106

106:                                              ; preds = %84
  %107 = load i32, ptr %19, align 4, !tbaa !30
  %108 = add nsw i32 %107, 1
  store i32 %108, ptr %19, align 4, !tbaa !30
  br label %80, !llvm.loop !117

109:                                              ; preds = %80
  %110 = load i64, ptr %24, align 8, !tbaa !48
  %111 = load i32, ptr %13, align 4, !tbaa !30
  %112 = sext i32 %111 to i64
  %113 = icmp slt i64 %110, %112
  %114 = zext i1 %113 to i32
  store i32 %114, ptr %25, align 4, !tbaa !30
  %115 = load i32, ptr %25, align 4, !tbaa !30
  %116 = load i32, ptr %21, align 4, !tbaa !30
  %117 = add nsw i32 %116, %115
  store i32 %117, ptr %21, align 4, !tbaa !30
  %118 = load i32, ptr %25, align 4, !tbaa !30
  %119 = icmp ne i32 %118, 0
  br i1 %119, label %120, label %137

120:                                              ; preds = %109
  %121 = load ptr, ptr %12, align 8, !tbaa !33
  %122 = icmp ne ptr %121, null
  br i1 %122, label %123, label %137

123:                                              ; preds = %120
  store i32 0, ptr %19, align 4, !tbaa !30
  br label %124

124:                                              ; preds = %133, %123
  %125 = load i32, ptr %19, align 4, !tbaa !30
  %126 = load i32, ptr %13, align 4, !tbaa !30
  %127 = icmp slt i32 %125, %126
  br i1 %127, label %128, label %136

128:                                              ; preds = %124
  %129 = load ptr, ptr %10, align 8, !tbaa !22
  %130 = load ptr, ptr %12, align 8, !tbaa !33
  %131 = load i32, ptr %19, align 4, !tbaa !30
  %132 = load i32, ptr %20, align 4, !tbaa !30
  call void @burn_frame16(ptr noundef %129, ptr noundef %130, i32 noundef %131, i32 noundef %132)
  br label %133

133:                                              ; preds = %128
  %134 = load i32, ptr %19, align 4, !tbaa !30
  %135 = add nsw i32 %134, 1
  store i32 %135, ptr %19, align 4, !tbaa !30
  br label %124, !llvm.loop !118

136:                                              ; preds = %124
  br label %137

137:                                              ; preds = %136, %120, %109
  store i32 0, ptr %26, align 4
  br label %138

138:                                              ; preds = %137, %78
  call void @llvm.lifetime.end.p0(i64 4, ptr %25) #11
  call void @llvm.lifetime.end.p0(i64 8, ptr %24) #11
  call void @llvm.lifetime.end.p0(i64 4, ptr %23) #11
  call void @llvm.lifetime.end.p0(i64 4, ptr %22) #11
  %139 = load i32, ptr %26, align 4
  switch i32 %139, label %148 [
    i32 0, label %140
    i32 4, label %141
  ]

140:                                              ; preds = %138
  br label %141

141:                                              ; preds = %140, %138
  %142 = load i32, ptr %20, align 4, !tbaa !30
  %143 = add nsw i32 %142, 1
  store i32 %143, ptr %20, align 4, !tbaa !30
  br label %64, !llvm.loop !119

144:                                              ; preds = %64
  %145 = load i32, ptr %21, align 4, !tbaa !30
  %146 = load i32, ptr %13, align 4, !tbaa !30
  %147 = mul nsw i32 %145, %146
  store i32 1, ptr %26, align 4
  call void @llvm.lifetime.end.p0(i64 4, ptr %21) #11
  call void @llvm.lifetime.end.p0(i64 4, ptr %20) #11
  call void @llvm.lifetime.end.p0(i64 4, ptr %19) #11
  call void @llvm.lifetime.end.p0(i64 4, ptr %18) #11
  call void @llvm.lifetime.end.p0(i64 8, ptr %17) #11
  call void @llvm.lifetime.end.p0(i64 4, ptr %16) #11
  call void @llvm.lifetime.end.p0(i64 4, ptr %15) #11
  call void @llvm.lifetime.end.p0(i64 4, ptr %14) #11
  call void @llvm.lifetime.end.p0(i64 4, ptr %13) #11
  call void @llvm.lifetime.end.p0(i64 8, ptr %12) #11
  call void @llvm.lifetime.end.p0(i64 8, ptr %11) #11
  call void @llvm.lifetime.end.p0(i64 8, ptr %10) #11
  call void @llvm.lifetime.end.p0(i64 8, ptr %9) #11
  ret i32 %147

148:                                              ; preds = %138
  unreachable
}