; Function Attrs: nofree norecurse nosync nounwind memory(readwrite, inaccessiblemem: none) uwtable
define internal i32 @filter16_vrep(ptr noundef readonly captures(none) %0, ptr noundef readonly captures(none) %1, i32 noundef %2, i32 noundef %3) #6 {
  %5 = load ptr, ptr %1, align 8, !tbaa !70
  %6 = getelementptr inbounds nuw i8, ptr %1, i64 8
  %7 = load ptr, ptr %6, align 8, !tbaa !72
  %.fr105 = freeze ptr %7
  %8 = getelementptr inbounds nuw i8, ptr %5, i64 104
  %9 = load i32, ptr %8, align 8, !tbaa !95
  %.fr = freeze i32 %9
  %10 = getelementptr inbounds nuw i8, ptr %5, i64 108
  %11 = load i32, ptr %10, align 4, !tbaa !89
  %12 = mul nsw i32 %11, %2
  %13 = sdiv i32 %12, %3
  %14 = add nsw i32 %2, 1
  %15 = mul nsw i32 %11, %14
  %16 = sdiv i32 %15, %3
  %17 = load ptr, ptr %5, align 8, !tbaa !54
  %18 = getelementptr inbounds nuw i8, ptr %5, i64 64
  %19 = load i32, ptr %18, align 8, !tbaa !26
  %20 = sdiv i32 %19, 2
  %21 = icmp slt i32 %13, %16
  br i1 %21, label %.lr.ph63, label %._crit_edge64

.lr.ph63:                                         ; preds = %4
  %22 = getelementptr inbounds nuw i8, ptr %0, i64 72
  %23 = load ptr, ptr %22, align 8, !tbaa !4
  %24 = icmp sgt i32 %.fr, 0
  %25 = sext i32 %.fr to i64
  %.not = icmp eq ptr %.fr105, null
  %26 = getelementptr inbounds nuw i8, ptr %23, i64 16
  %27 = getelementptr inbounds nuw i8, ptr %23, i64 20
  %28 = getelementptr inbounds nuw i8, ptr %23, i64 24
  %29 = getelementptr inbounds nuw i8, ptr %23, i64 60
  %30 = getelementptr inbounds nuw i8, ptr %.fr105, i64 64
  %31 = getelementptr inbounds nuw i8, ptr %23, i64 64
  %32 = getelementptr inbounds nuw i8, ptr %.fr105, i64 8
  %33 = getelementptr inbounds nuw i8, ptr %.fr105, i64 68
  %34 = getelementptr inbounds nuw i8, ptr %23, i64 68
  %35 = getelementptr inbounds nuw i8, ptr %.fr105, i64 16
  %36 = getelementptr inbounds nuw i8, ptr %.fr105, i64 72
  br i1 %.not, label %.lr.ph63.split.us, label %.lr.ph63.split

.lr.ph63.split.us:                                ; preds = %.lr.ph63
  br i1 %24, label %.lr.ph63.split.us.split.us.preheader, label %._crit_edge64

.lr.ph63.split.us.split.us.preheader:             ; preds = %.lr.ph63.split.us
  %37 = sext i32 %13 to i64
  %38 = sext i32 %20 to i64
  %wide.trip.count142 = sext i32 %16 to i64
  %wide.trip.count137 = zext nneg i32 %.fr to i64
  br label %.lr.ph63.split.us.split.us

.lr.ph63.split.us.split.us:                       ; preds = %.lr.ph63.split.us.split.us.preheader, %51
  %indvars.iv139 = phi i64 [ %37, %.lr.ph63.split.us.split.us.preheader ], [ %indvars.iv.next140, %51 ]
  %.05059.us.us = phi i32 [ 0, %.lr.ph63.split.us.split.us.preheader ], [ %.151.us.us, %51 ]
  %39 = icmp slt i64 %indvars.iv139, 4
  br i1 %39, label %51, label %.preheader54.us.us.preheader

.preheader54.us.us.preheader:                     ; preds = %.lr.ph63.split.us.split.us
  %40 = mul nsw i64 %indvars.iv139, %38
  %41 = add nsw i64 %indvars.iv139, -4
  %42 = mul nsw i64 %41, %38
  %invariant.gep148 = getelementptr i16, ptr %17, i64 %42
  %invariant.gep150 = getelementptr i16, ptr %17, i64 %40
  br label %.preheader54.us.us

.preheader54.us.us:                               ; preds = %.preheader54.us.us.preheader, %.preheader54.us.us
  %indvars.iv134 = phi i64 [ 0, %.preheader54.us.us.preheader ], [ %indvars.iv.next135, %.preheader54.us.us ]
  %.04855.us.us = phi i64 [ 0, %.preheader54.us.us.preheader ], [ %50, %.preheader54.us.us ]
  %gep149 = getelementptr i16, ptr %invariant.gep148, i64 %indvars.iv134
  %43 = load i16, ptr %gep149, align 2, !tbaa !62
  %44 = zext i16 %43 to i32
  %gep151 = getelementptr i16, ptr %invariant.gep150, i64 %indvars.iv134
  %45 = load i16, ptr %gep151, align 2, !tbaa !62
  %46 = zext i16 %45 to i32
  %47 = sub nsw i32 %44, %46
  %48 = tail call i32 @llvm.abs.i32(i32 %47, i1 true)
  %49 = zext nneg i32 %48 to i64
  %50 = add nuw nsw i64 %.04855.us.us, %49
  %indvars.iv.next135 = add nuw nsw i64 %indvars.iv134, 1
  %exitcond138.not = icmp eq i64 %indvars.iv.next135, %wide.trip.count137
  br i1 %exitcond138.not, label %._crit_edge.us.us, label %.preheader54.us.us, !llvm.loop !107

51:                                               ; preds = %._crit_edge.us.us, %.lr.ph63.split.us.split.us
  %.151.us.us = phi i32 [ %.05059.us.us, %.lr.ph63.split.us.split.us ], [ %54, %._crit_edge.us.us ]
  %indvars.iv.next140 = add nsw i64 %indvars.iv139, 1
  %exitcond143.not = icmp eq i64 %indvars.iv.next140, %wide.trip.count142
  br i1 %exitcond143.not, label %._crit_edge64, label %.lr.ph63.split.us.split.us, !llvm.loop !108

._crit_edge.us.us:                                ; preds = %.preheader54.us.us
  %52 = icmp slt i64 %50, %25
  %53 = zext i1 %52 to i32
  %54 = add nsw i32 %.05059.us.us, %53
  br label %51

.lr.ph63.split:                                   ; preds = %.lr.ph63
  br i1 %24, label %.lr.ph63.split.split.us.preheader, label %._crit_edge64

.lr.ph63.split.split.us.preheader:                ; preds = %.lr.ph63.split
  %55 = sext i32 %13 to i64
  %56 = sext i32 %20 to i64
  %wide.trip.count132 = sext i32 %16 to i64
  %wide.trip.count122 = zext nneg i32 %.fr to i64
  %wide.trip.count127 = zext nneg i32 %.fr to i64
  br label %.lr.ph63.split.split.us

.lr.ph63.split.split.us:                          ; preds = %.lr.ph63.split.split.us.preheader, %..loopexit_crit_edge.us
  %indvars.iv129 = phi i64 [ %55, %.lr.ph63.split.split.us.preheader ], [ %indvars.iv.next130, %..loopexit_crit_edge.us ]
  %.05059.us67 = phi i32 [ 0, %.lr.ph63.split.split.us.preheader ], [ %.151.us71, %..loopexit_crit_edge.us ]
  %57 = icmp slt i64 %indvars.iv129, 4
  br i1 %57, label %..loopexit_crit_edge.us, label %.lr.ph.us73.preheader

._crit_edge.us74:                                 ; preds = %.lr.ph.us73
  %58 = icmp slt i64 %106, %25
  %59 = zext i1 %58 to i32
  %60 = add nsw i32 %.05059.us67, %59
  br i1 %58, label %.preheader.us.preheader, label %..loopexit_crit_edge.us

.preheader.us.preheader:                          ; preds = %._crit_edge.us74
  %61 = trunc nsw i64 %indvars.iv129 to i32
  br label %.preheader.us

.preheader.us:                                    ; preds = %.preheader.us.preheader, %.preheader.us
  %indvars.iv124 = phi i64 [ 0, %.preheader.us.preheader ], [ %indvars.iv.next125, %.preheader.us ]
  %62 = load i32, ptr %26, align 8, !tbaa !96
  %63 = trunc nuw nsw i64 %indvars.iv124 to i32
  %64 = lshr i32 %63, %62
  %65 = load i32, ptr %27, align 4, !tbaa !97
  %66 = lshr i32 %61, %65
  %67 = load i32, ptr %28, align 8, !tbaa !46
  %68 = add nsw i32 %67, -8
  %69 = load i32, ptr %29, align 4, !tbaa !26
  %70 = shl i32 %69, %68
  %71 = trunc i32 %70 to i16
  %72 = load ptr, ptr %.fr105, align 8, !tbaa !54
  %73 = load i32, ptr %30, align 8, !tbaa !26
  %74 = sext i32 %73 to i64
  %75 = mul nsw i64 %indvars.iv129, %74
  %76 = getelementptr inbounds i8, ptr %72, i64 %75
  %77 = shl nuw nsw i64 %indvars.iv124, 1
  %78 = getelementptr inbounds nuw i8, ptr %76, i64 %77
  store i16 %71, ptr %78, align 1, !tbaa !25
  %79 = load i32, ptr %31, align 4, !tbaa !26
  %80 = shl i32 %79, %68
  %81 = trunc i32 %80 to i16
  %82 = load ptr, ptr %32, align 8, !tbaa !54
  %83 = load i32, ptr %33, align 4, !tbaa !26
  %84 = mul nsw i32 %83, %66
  %85 = sext i32 %84 to i64
  %86 = getelementptr inbounds i8, ptr %82, i64 %85
  %87 = shl nuw nsw i32 %64, 1
  %88 = zext nneg i32 %87 to i64
  %89 = getelementptr inbounds nuw i8, ptr %86, i64 %88
  store i16 %81, ptr %89, align 1, !tbaa !25
  %90 = load i32, ptr %34, align 4, !tbaa !26
  %91 = shl i32 %90, %68
  %92 = trunc i32 %91 to i16
  %93 = load ptr, ptr %35, align 8, !tbaa !54
  %94 = load i32, ptr %36, align 8, !tbaa !26
  %95 = mul nsw i32 %94, %66
  %96 = sext i32 %95 to i64
  %97 = getelementptr inbounds i8, ptr %93, i64 %96
  %98 = getelementptr inbounds nuw i8, ptr %97, i64 %88
  store i16 %92, ptr %98, align 1, !tbaa !25
  %indvars.iv.next125 = add nuw nsw i64 %indvars.iv124, 1
  %exitcond128.not = icmp eq i64 %indvars.iv.next125, %wide.trip.count127
  br i1 %exitcond128.not, label %..loopexit_crit_edge.us, label %.preheader.us, !llvm.loop !109

.lr.ph.us73:                                      ; preds = %.lr.ph.us73.preheader, %.lr.ph.us73
  %indvars.iv119 = phi i64 [ 0, %.lr.ph.us73.preheader ], [ %indvars.iv.next120, %.lr.ph.us73 ]
  %.04855.us70 = phi i64 [ 0, %.lr.ph.us73.preheader ], [ %106, %.lr.ph.us73 ]
  %gep = getelementptr i16, ptr %invariant.gep, i64 %indvars.iv119
  %99 = load i16, ptr %gep, align 2, !tbaa !62
  %100 = zext i16 %99 to i32
  %gep147 = getelementptr i16, ptr %invariant.gep146, i64 %indvars.iv119
  %101 = load i16, ptr %gep147, align 2, !tbaa !62
  %102 = zext i16 %101 to i32
  %103 = sub nsw i32 %100, %102
  %104 = tail call i32 @llvm.abs.i32(i32 %103, i1 true)
  %105 = zext nneg i32 %104 to i64
  %106 = add nuw nsw i64 %.04855.us70, %105
  %indvars.iv.next120 = add nuw nsw i64 %indvars.iv119, 1
  %exitcond123.not = icmp eq i64 %indvars.iv.next120, %wide.trip.count122
  br i1 %exitcond123.not, label %._crit_edge.us74, label %.lr.ph.us73, !llvm.loop !107

..loopexit_crit_edge.us:                          ; preds = %.preheader.us, %._crit_edge.us74, %.lr.ph63.split.split.us
  %.151.us71 = phi i32 [ %.05059.us67, %.lr.ph63.split.split.us ], [ %60, %._crit_edge.us74 ], [ %60, %.preheader.us ]
  %indvars.iv.next130 = add nsw i64 %indvars.iv129, 1
  %exitcond133.not = icmp eq i64 %indvars.iv.next130, %wide.trip.count132
  br i1 %exitcond133.not, label %._crit_edge64, label %.lr.ph63.split.split.us, !llvm.loop !108

.lr.ph.us73.preheader:                            ; preds = %.lr.ph63.split.split.us
  %107 = mul nsw i64 %indvars.iv129, %56
  %108 = add nsw i64 %indvars.iv129, -4
  %109 = mul nsw i64 %108, %56
  %invariant.gep = getelementptr i16, ptr %17, i64 %109
  %invariant.gep146 = getelementptr i16, ptr %17, i64 %107
  br label %.lr.ph.us73

._crit_edge64:                                    ; preds = %..loopexit_crit_edge.us, %51, %.lr.ph63.split, %.lr.ph63.split.us, %4
  %.050.lcssa = phi i32 [ 0, %4 ], [ 0, %.lr.ph63.split.us ], [ 0, %.lr.ph63.split ], [ %.151.us.us, %51 ], [ %.151.us71, %..loopexit_crit_edge.us ]
  %110 = mul nsw i32 %.050.lcssa, %.fr
  ret i32 %110
}